; Function Attrs: null_pointer_is_valid sspstrong uwtable
define internal fastcc void @c_pkt_data_save(ptr noundef readonly captures(none) %0, ptr noundef %1, i32 noundef range(i32 0, -1) %2) unnamed_addr #0 {
  %4 = getelementptr inbounds nuw i8, ptr %1, i64 80
  %5 = load ptr, ptr %4, align 8
  %6 = getelementptr inbounds nuw i8, ptr %5, i64 57
  %7 = load i16, ptr %6, align 1
  %8 = and i16 %7, 8
  %.not = icmp eq i16 %8, 0
  br i1 %.not, label %9, label %50

9:                                                ; preds = %3
  %10 = tail call ptr @wmem_file_scope()
  %11 = load i32, ptr @proto_ceph, align 4
  %12 = getelementptr inbounds nuw i8, ptr %0, i64 8
  %13 = load ptr, ptr %12, align 8
  %14 = tail call ptr @wmem_file_scope()
  %15 = tail call noalias dereferenceable_or_null(128) ptr @wmem_alloc(ptr noundef %14, i64 noundef 128) #12
  %16 = getelementptr inbounds nuw i8, ptr %15, i64 24
  %17 = getelementptr inbounds nuw i8, ptr %13, i64 24
  tail call void @llvm.memcpy.p0.p0.i64(ptr noundef nonnull align 8 dereferenceable(32) %16, ptr noundef nonnull readonly align 8 dereferenceable(32) %17, i64 32, i1 false)
  %18 = load i32, ptr %13, align 8
  %19 = getelementptr inbounds nuw i8, ptr %13, i64 4
  %20 = load i32, ptr %19, align 4
  %21 = getelementptr inbounds nuw i8, ptr %13, i64 8
  %22 = load ptr, ptr %21, align 8
  store i32 %18, ptr %15, align 8
  %23 = getelementptr inbounds nuw i8, ptr %15, i64 4
  store i32 %20, ptr %23, align 4
  %24 = getelementptr inbounds nuw i8, ptr %15, i64 8
  store ptr %22, ptr %24, align 8
  %25 = getelementptr inbounds nuw i8, ptr %15, i64 16
  store ptr null, ptr %25, align 8
  %26 = getelementptr inbounds nuw i8, ptr %13, i64 60
  %27 = load i16, ptr %26, align 4
  %28 = getelementptr inbounds nuw i8, ptr %15, i64 60
  store i16 %27, ptr %28, align 4
  %29 = getelementptr inbounds nuw i8, ptr %13, i64 56
  %30 = load i32, ptr %29, align 8
  %31 = getelementptr inbounds nuw i8, ptr %15, i64 56
  store i32 %30, ptr %31, align 8
  %32 = getelementptr inbounds nuw i8, ptr %13, i64 64
  %33 = getelementptr inbounds nuw i8, ptr %15, i64 64
  %34 = getelementptr inbounds nuw i8, ptr %15, i64 88
  %35 = getelementptr inbounds nuw i8, ptr %13, i64 88
  tail call void @llvm.memcpy.p0.p0.i64(ptr noundef nonnull align 8 dereferenceable(32) %34, ptr noundef nonnull readonly align 8 dereferenceable(32) %35, i64 32, i1 false)
  %36 = load i32, ptr %32, align 8
  %37 = getelementptr inbounds nuw i8, ptr %13, i64 68
  %38 = load i32, ptr %37, align 4
  %39 = getelementptr inbounds nuw i8, ptr %13, i64 72
  %40 = load ptr, ptr %39, align 8
  store i32 %36, ptr %33, align 8
  %41 = getelementptr inbounds nuw i8, ptr %15, i64 68
  store i32 %38, ptr %41, align 4
  %42 = getelementptr inbounds nuw i8, ptr %15, i64 72
  store ptr %40, ptr %42, align 8
  %43 = getelementptr inbounds nuw i8, ptr %15, i64 80
  store ptr null, ptr %43, align 8
  %44 = getelementptr inbounds nuw i8, ptr %13, i64 124
  %45 = load i16, ptr %44, align 4
  %46 = getelementptr inbounds nuw i8, ptr %15, i64 124
  store i16 %45, ptr %46, align 4
  %47 = getelementptr inbounds nuw i8, ptr %13, i64 120
  %48 = load i32, ptr %47, align 8
  %49 = getelementptr inbounds nuw i8, ptr %15, i64 120
  store i32 %48, ptr %49, align 8
  tail call void @p_add_proto_data(ptr noundef %10, ptr noundef %1, i32 noundef %11, i32 noundef %2, ptr noundef %15)
  br label %50

50:                                               ; preds = %9, %3
  ret void
}